; Function Attrs: mustprogress uwtable
define void @_ZN32pxrInternal_v0_24__pxrReserved__27HgiShaderFunctionAddTextureEPNS_21HgiShaderFunctionDescERKNSt7__cxx1112basic_stringIcSt11char_traitsIcESaIcEEEjjRKNS_9HgiFormatENS_20HgiShaderTextureTypeE(ptr noundef %0, ptr noundef nonnull align 8 dereferenceable(32) %1, i32 noundef %2, i32 noundef %3, ptr noundef nonnull readonly align 4 captures(none) dereferenceable(4) %4, i32 noundef %5) local_unnamed_addr #3 personality ptr @__gxx_personality_v0 {
  %7 = alloca %"struct.pxrInternal_v0_24__pxrReserved__::HgiShaderFunctionTextureDesc", align 8
  call void @_ZN32pxrInternal_v0_24__pxrReserved__28HgiShaderFunctionTextureDescC1Ev(ptr noundef nonnull align 8 dereferenceable(57) %7)
  %8 = invoke noundef nonnull align 8 dereferenceable(32) ptr @_ZNSt7__cxx1112basic_stringIcSt11char_traitsIcESaIcEEaSERKS4_(ptr noundef nonnull align 8 dereferenceable(32) %7, ptr noundef nonnull align 8 dereferenceable(32) %1)
          to label %9 unwind label %27

9:                                                ; preds = %6
  %10 = getelementptr inbounds nuw i8, ptr %7, i64 44
  store i32 %2, ptr %10, align 4
  %11 = getelementptr inbounds nuw i8, ptr %7, i64 32
  store i32 %3, ptr %11, align 8
  %12 = load i32, ptr %4, align 4
  %13 = getelementptr inbounds nuw i8, ptr %7, i64 36
  store i32 %12, ptr %13, align 4
  %14 = getelementptr inbounds nuw i8, ptr %7, i64 40
  store i32 %5, ptr %14, align 8
  %15 = getelementptr inbounds nuw i8, ptr %7, i64 48
  store i64 0, ptr %15, align 8
  %16 = getelementptr inbounds nuw i8, ptr %7, i64 56
  store i8 0, ptr %16, align 8
  %17 = getelementptr inbounds nuw i8, ptr %0, i64 72
  %18 = load ptr, ptr %17, align 8
  %19 = getelementptr inbounds nuw i8, ptr %0, i64 80
  %20 = load ptr, ptr %19, align 8
  %.not.i.i = icmp eq ptr %18, %20
  br i1 %.not.i.i, label %25, label %21

21:                                               ; preds = %9
  call void @_ZNSt7__cxx1112basic_stringIcSt11char_traitsIcESaIcEEC1EOS4_(ptr noundef nonnull align 8 dereferenceable(57) %18, ptr noundef nonnull align 8 dereferenceable(57) %7) #16
  %22 = getelementptr inbounds nuw i8, ptr %18, i64 32
  call void @llvm.memcpy.p0.p0.i64(ptr noundef nonnull align 8 dereferenceable(25) %22, ptr noundef nonnull align 8 dereferenceable(25) %11, i64 25, i1 false)
  %23 = load ptr, ptr %17, align 8
  %24 = getelementptr inbounds nuw i8, ptr %23, i64 64
  store ptr %24, ptr %17, align 8
  br label %_ZNSt6vectorIN32pxrInternal_v0_24__pxrReserved__28HgiShaderFunctionTextureDescESaIS1_EE9push_backEOS1_.exit

25:                                               ; preds = %9
  %26 = getelementptr inbounds nuw i8, ptr %0, i64 64
  invoke void @_ZNSt6vectorIN32pxrInternal_v0_24__pxrReserved__28HgiShaderFunctionTextureDescESaIS1_EE17_M_realloc_insertIJS1_EEEvN9__gnu_cxx17__normal_iteratorIPS1_S3_EEDpOT_(ptr noundef nonnull align 8 dereferenceable(24) %26, ptr %18, ptr noundef nonnull align 8 dereferenceable(57) %7)
          to label %_ZNSt6vectorIN32pxrInternal_v0_24__pxrReserved__28HgiShaderFunctionTextureDescESaIS1_EE9push_backEOS1_.exit unwind label %27

_ZNSt6vectorIN32pxrInternal_v0_24__pxrReserved__28HgiShaderFunctionTextureDescESaIS1_EE9push_backEOS1_.exit: ; preds = %21, %25
  call void @_ZNSt7__cxx1112basic_stringIcSt11char_traitsIcESaIcEED1Ev(ptr noundef nonnull align 8 dereferenceable(57) %7) #16
  ret void

27:                                               ; preds = %25, %6
  %28 = landingpad { ptr, i32 }
          cleanup
  call void @_ZNSt7__cxx1112basic_stringIcSt11char_traitsIcESaIcEED1Ev(ptr noundef nonnull align 8 dereferenceable(57) %7) #16
  resume { ptr, i32 } %28
}